target datalayout = "e-m:e-p270:32:32-p271:32:32-p272:64:64-i64:64-i128:128-f80:128-n8:16:32:64-S128"
target triple = "x86_64-unknown-linux-gnu"

%struct.UResourceBundle = type { ptr, ptr, ptr, ptr, ptr, [64 x i8], i32, i32, i8, i8, i32, i32, i32, i32 }
%struct.UResourceDataEntry = type { ptr, ptr, ptr, ptr, ptr, %struct.ResourceData, [3 x i8], i32, i32 }
%struct.ResourceData = type { ptr, ptr, ptr, ptr, i32, i32, ptr, i32, i32, i8, i8, i8, i8 }

; Function Attrs: mustprogress uwtable
define internal noundef ptr @_ZN12_GLOBAL__N_116init_resb_resultEP18UResourceDataEntryjPKciPK15UResourceBundlePS4_P10UErrorCode(ptr noundef %dataEntry, i32 noundef %r, ptr noundef %key, i32 noundef %idx, ptr noundef %container, ptr noundef %resB, ptr noundef %status) #1 {
entry:
  %dataEntry.addr = alloca ptr, align 8
  %r.addr = alloca i32, align 4
  %key.addr = alloca ptr, align 8
  %idx.addr = alloca i32, align 4
  %container.addr = alloca ptr, align 8
  %resB.addr = alloca ptr, align 8
  %status.addr = alloca ptr, align 8
  store ptr %dataEntry, ptr %dataEntry.addr, align 8
  store i32 %r, ptr %r.addr, align 4
  store ptr %key, ptr %key.addr, align 8
  store i32 %idx, ptr %idx.addr, align 4
  store ptr %container, ptr %container.addr, align 8
  store ptr %resB, ptr %resB.addr, align 8
  store ptr %status, ptr %status.addr, align 8
  %0 = load ptr, ptr %dataEntry.addr, align 8
  %1 = load i32, ptr %r.addr, align 4
  %2 = load ptr, ptr %key.addr, align 8
  %3 = load i32, ptr %idx.addr, align 4
  %4 = load ptr, ptr %container.addr, align 8
  %fValidLocaleDataEntry = getelementptr inbounds %struct.UResourceBundle, ptr %4, i32 0, i32 3
  %5 = load ptr, ptr %fValidLocaleDataEntry, align 8
  %6 = load ptr, ptr %container.addr, align 8
  %fResPath = getelementptr inbounds %struct.UResourceBundle, ptr %6, i32 0, i32 4
  %7 = load ptr, ptr %fResPath, align 8
  %8 = load ptr, ptr %resB.addr, align 8
  %9 = load ptr, ptr %status.addr, align 8
  %call = call noundef ptr @_ZN12_GLOBAL__N_116init_resb_resultEP18UResourceDataEntryjPKciS1_S3_iP15UResourceBundleP10UErrorCode(ptr noundef %0, i32 noundef %1, ptr noundef %2, i32 noundef %3, ptr noundef %5, ptr noundef %7, i32 noundef 0, ptr noundef %8, ptr noundef %9)
  ret ptr %call
}

; Function Attrs: mustprogress nounwind uwtable
define linkonce_odr noundef nonnull align 8 dereferenceable(64) ptr @_ZNK15UResourceBundle10getResDataEv(ptr noundef nonnull align 8 dereferenceable(136) %this) #0 comdat align 2 {
entry:
  %this.addr = alloca ptr, align 8
  store ptr %this, ptr %this.addr, align 8
  %this1 = load ptr, ptr %this.addr, align 8
  %fData = getelementptr inbounds %struct.UResourceBundle, ptr %this1, i32 0, i32 1
  %0 = load ptr, ptr %fData, align 8
  %fData2 = getelementptr inbounds %struct.UResourceDataEntry, ptr %0, i32 0, i32 5
  ret ptr %fData2
}

; Function Attrs: mustprogress uwtable
define void @ures_close_75(ptr noundef %resB) #1 {
entry:
  %resB.addr = alloca ptr, align 8
  store ptr %resB, ptr %resB.addr, align 8
  %0 = load ptr, ptr %resB.addr, align 8
  call void @_ZL16ures_closeBundleP15UResourceBundlea(ptr noundef %0, i8 noundef signext 1)
  ret void
}

; Function Attrs: mustprogress uwtable
define ptr @ures_findSubResource_75(ptr noundef %resB, ptr noundef %path, ptr noundef %fillIn, ptr noundef %status) #1 {
entry:
  %retval = alloca ptr, align 8
  %resB.addr = alloca ptr, align 8
  %path.addr = alloca ptr, align 8
  %fillIn.addr = alloca ptr, align 8
  %status.addr = alloca ptr, align 8
  %res = alloca i32, align 4
  %result = alloca ptr, align 8
  %key = alloca ptr, align 8
  store ptr %resB, ptr %resB.addr, align 8
  store ptr %path, ptr %path.addr, align 8
  store ptr %fillIn, ptr %fillIn.addr, align 8
  store ptr %status, ptr %status.addr, align 8
  store i32 -1, ptr %res, align 4
  %0 = load ptr, ptr %fillIn.addr, align 8
  store ptr %0, ptr %result, align 8
  %1 = load ptr, ptr %status.addr, align 8
  %cmp = icmp eq ptr %1, null
  br i1 %cmp, label %if.then, label %lor.lhs.false

lor.lhs.false:                                    ; preds = %entry
  %2 = load ptr, ptr %status.addr, align 8
  %3 = load i32, ptr %2, align 4
  %call = call noundef signext i8 @_ZL9U_FAILURE10UErrorCode(i32 noundef %3)
  %tobool = icmp ne i8 %call, 0
  br i1 %tobool, label %if.then, label %if.end

if.then:                                          ; preds = %lor.lhs.false, %entry
  %4 = load ptr, ptr %result, align 8
  store ptr %4, ptr %retval, align 8
  br label %return

if.end:                                           ; preds = %lor.lhs.false
  br label %do.body

do.body:                                          ; preds = %do.cond, %if.end
  %5 = load ptr, ptr %resB.addr, align 8
  %call1 = call noundef nonnull align 8 dereferenceable(64) ptr @_ZNK15UResourceBundle10getResDataEv(ptr noundef nonnull align 8 dereferenceable(136) %5)
  %6 = load ptr, ptr %resB.addr, align 8
  %fRes = getelementptr inbounds %struct.UResourceBundle, ptr %6, i32 0, i32 7
  %7 = load i32, ptr %fRes, align 4
  %call2 = call i32 @res_findResource_75(ptr noundef %call1, i32 noundef %7, ptr noundef %path.addr, ptr noundef %key)
  store i32 %call2, ptr %res, align 4
  %8 = load i32, ptr %res, align 4
  %cmp3 = icmp ne i32 %8, -1
  br i1 %cmp3, label %if.then4, label %if.else

if.then4:                                         ; preds = %do.body
  %9 = load ptr, ptr %resB.addr, align 8
  %fData = getelementptr inbounds %struct.UResourceBundle, ptr %9, i32 0, i32 1
  %10 = load ptr, ptr %fData, align 8
  %11 = load i32, ptr %res, align 4
  %12 = load ptr, ptr %key, align 8
  %13 = load ptr, ptr %resB.addr, align 8
  %14 = load ptr, ptr %fillIn.addr, align 8
  %15 = load ptr, ptr %status.addr, align 8
  %call5 = call noundef ptr @_ZN12_GLOBAL__N_116init_resb_resultEP18UResourceDataEntryjPKciPK15UResourceBundlePS4_P10UErrorCode(ptr noundef %10, i32 noundef %11, ptr noundef %12, i32 noundef -1, ptr noundef %13, ptr noundef %14, ptr noundef %15)
  store ptr %call5, ptr %result, align 8
  %16 = load ptr, ptr %result, align 8
  store ptr %16, ptr %resB.addr, align 8
  br label %if.end6

if.else:                                          ; preds = %do.body
  %17 = load ptr, ptr %status.addr, align 8
  store i32 2, ptr %17, align 4
  br label %do.end

if.end6:                                          ; preds = %if.then4
  br label %do.cond

do.cond:                                          ; preds = %if.end6
  %18 = load ptr, ptr %path.addr, align 8
  %19 = load i8, ptr %18, align 1
  %tobool7 = icmp ne i8 %19, 0
  br i1 %tobool7, label %do.body, label %do.end, !llvm.loop !6

do.end:                                           ; preds = %do.cond, %if.else
  %20 = load ptr, ptr %result, align 8
  store ptr %20, ptr %retval, align 8
  br label %return

return:                                           ; preds = %do.end, %if.then
  %21 = load ptr, ptr %retval, align 8
  ret ptr %21
}

; Function Attrs: mustprogress nounwind uwtable
define internal noundef signext i8 @_ZL9U_SUCCESS10UErrorCode(i32 noundef %code) #0 {
entry:
  %code.addr = alloca i32, align 4
  store i32 %code, ptr %code.addr, align 4
  %0 = load i32, ptr %code.addr, align 4
  %cmp = icmp sle i32 %0, 0
  %conv = zext i1 %cmp to i8
  ret i8 %conv
}

; Function Attrs: mustprogress uwtable
define ptr @ures_open_75(ptr noundef %path, ptr noundef %localeID, ptr noundef %status) #1 {
entry:
  %path.addr = alloca ptr, align 8
  %localeID.addr = alloca ptr, align 8
  %status.addr = alloca ptr, align 8
  store ptr %path, ptr %path.addr, align 8
  store ptr %localeID, ptr %localeID.addr, align 8
  store ptr %status, ptr %status.addr, align 8
  %0 = load ptr, ptr %path.addr, align 8
  %1 = load ptr, ptr %localeID.addr, align 8
  %2 = load ptr, ptr %status.addr, align 8
  %call = call noundef ptr @_ZL17ures_openWithTypeP15UResourceBundlePKcS2_12UResOpenTypeP10UErrorCode(ptr noundef null, ptr noundef %0, ptr noundef %1, i32 noundef 0, ptr noundef %2)
  ret ptr %call
}

; Function Attrs: mustprogress nounwind uwtable
define internal noundef signext i8 @_ZL9U_FAILURE10UErrorCode(i32 noundef %code) #0 {
entry:
  %code.addr = alloca i32, align 4
  store i32 %code, ptr %code.addr, align 4
  %0 = load i32, ptr %code.addr, align 4
  %cmp = icmp sgt i32 %0, 0
  %conv = zext i1 %cmp to i8
  ret i8 %conv
}

; Function Attrs: mustprogress uwtable
define ptr @ures_findResource_75(ptr noundef %path, ptr noundef %fillIn, ptr noundef %status) #1 {
entry:
  %retval = alloca ptr, align 8
  %path.addr = alloca ptr, align 8
  %fillIn.addr = alloca ptr, align 8
  %status.addr = alloca ptr, align 8
  %first = alloca ptr, align 8
  %result = alloca ptr, align 8
  %packageName = alloca ptr, align 8
  %pathToResource = alloca ptr, align 8
  %save = alloca ptr, align 8
  %locale = alloca ptr, align 8
  %localeEnd = alloca ptr, align 8
  %length = alloca i32, align 4
  store ptr %path, ptr %path.addr, align 8
  store ptr %fillIn, ptr %fillIn.addr, align 8
  store ptr %status, ptr %status.addr, align 8
  store ptr null, ptr %first, align 8
  %0 = load ptr, ptr %fillIn.addr, align 8
  store ptr %0, ptr %result, align 8
  store ptr null, ptr %packageName, align 8
  store ptr null, ptr %pathToResource, align 8
  store ptr null, ptr %save, align 8
  store ptr null, ptr %locale, align 8
  store ptr null, ptr %localeEnd, align 8
  %1 = load ptr, ptr %status.addr, align 8
  %cmp = icmp eq ptr %1, null
  br i1 %cmp, label %if.then, label %lor.lhs.false

lor.lhs.false:                                    ; preds = %entry
  %2 = load ptr, ptr %status.addr, align 8
  %3 = load i32, ptr %2, align 4
  %call = call noundef signext i8 @_ZL9U_FAILURE10UErrorCode(i32 noundef %3)
  %tobool = icmp ne i8 %call, 0
  br i1 %tobool, label %if.then, label %if.end

if.then:                                          ; preds = %lor.lhs.false, %entry
  %4 = load ptr, ptr %result, align 8
  store ptr %4, ptr %retval, align 8
  br label %return

if.end:                                           ; preds = %lor.lhs.false
  %5 = load ptr, ptr %path.addr, align 8
  %call1 = call i64 @strlen(ptr noundef %5) #14
  %add = add i64 %call1, 1
  %conv = trunc i64 %add to i32
  store i32 %conv, ptr %length, align 4
  %6 = load i32, ptr %length, align 4
  %conv2 = sext i32 %6 to i64
  %mul = mul i64 %conv2, 1
  %call3 = call noalias ptr @uprv_malloc_75(i64 noundef %mul) #11
  store ptr %call3, ptr %pathToResource, align 8
  store ptr %call3, ptr %save, align 8
  %7 = load ptr, ptr %pathToResource, align 8
  %cmp4 = icmp eq ptr %7, null
  br i1 %cmp4, label %if.then5, label %if.end6

if.then5:                                         ; preds = %if.end
  %8 = load ptr, ptr %status.addr, align 8
  store i32 7, ptr %8, align 4
  %9 = load ptr, ptr %result, align 8
  store ptr %9, ptr %retval, align 8
  br label %return

if.end6:                                          ; preds = %if.end
  br label %do.body

do.body:                                          ; preds = %if.end6
  %10 = load ptr, ptr %pathToResource, align 8
  %11 = load ptr, ptr %path.addr, align 8
  %12 = load i32, ptr %length, align 4
  %conv7 = sext i32 %12 to i64
  call void @llvm.memcpy.p0.p0.i64(ptr align 1 %10, ptr align 1 %11, i64 %conv7, i1 false)
  br label %do.end

do.end:                                           ; preds = %do.body
  %13 = load ptr, ptr %pathToResource, align 8
  store ptr %13, ptr %locale, align 8
  %14 = load ptr, ptr %pathToResource, align 8
  %15 = load i8, ptr %14, align 1
  %conv8 = sext i8 %15 to i32
  %cmp9 = icmp eq i32 %conv8, 47
  br i1 %cmp9, label %if.then10, label %if.end15

if.then10:                                        ; preds = %do.end
  %16 = load ptr, ptr %pathToResource, align 8
  %incdec.ptr = getelementptr inbounds i8, ptr %16, i32 1
  store ptr %incdec.ptr, ptr %pathToResource, align 8
  %17 = load ptr, ptr %pathToResource, align 8
  store ptr %17, ptr %packageName, align 8
  %18 = load ptr, ptr %pathToResource, align 8
  %call11 = call noundef ptr @strchr(ptr noundef %18, i32 noundef 47) #14
  store ptr %call11, ptr %pathToResource, align 8
  %19 = load ptr, ptr %pathToResource, align 8
  %cmp12 = icmp eq ptr %19, null
  br i1 %cmp12, label %if.then13, label %if.else

if.then13:                                        ; preds = %if.then10
  %20 = load ptr, ptr %status.addr, align 8
  store i32 1, ptr %20, align 4
  br label %if.end14

if.else:                                          ; preds = %if.then10
  %21 = load ptr, ptr %pathToResource, align 8
  store i8 0, ptr %21, align 1
  %22 = load ptr, ptr %pathToResource, align 8
  %add.ptr = getelementptr inbounds i8, ptr %22, i64 1
  store ptr %add.ptr, ptr %locale, align 8
  br label %if.end14

if.end14:                                         ; preds = %if.else, %if.then13
  br label %if.end15

if.end15:                                         ; preds = %if.end14, %do.end
  %23 = load ptr, ptr %locale, align 8
  %call16 = call noundef ptr @strchr(ptr noundef %23, i32 noundef 47) #14
  store ptr %call16, ptr %localeEnd, align 8
  %24 = load ptr, ptr %localeEnd, align 8
  %cmp17 = icmp ne ptr %24, null
  br i1 %cmp17, label %if.then18, label %if.end19

if.then18:                                        ; preds = %if.end15
  %25 = load ptr, ptr %localeEnd, align 8
  store i8 0, ptr %25, align 1
  br label %if.end19

if.end19:                                         ; preds = %if.then18, %if.end15
  %26 = load ptr, ptr %packageName, align 8
  %27 = load ptr, ptr %locale, align 8
  %28 = load ptr, ptr %status.addr, align 8
  %call20 = call ptr @ures_open_75(ptr noundef %26, ptr noundef %27, ptr noundef %28)
  store ptr %call20, ptr %first, align 8
  %29 = load ptr, ptr %status.addr, align 8
  %30 = load i32, ptr %29, align 4
  %call21 = call noundef signext i8 @_ZL9U_SUCCESS10UErrorCode(i32 noundef %30)
  %tobool22 = icmp ne i8 %call21, 0
  br i1 %tobool22, label %if.then23, label %if.end31

if.then23:                                        ; preds = %if.end19
  %31 = load ptr, ptr %localeEnd, align 8
  %tobool24 = icmp ne ptr %31, null
  br i1 %tobool24, label %if.then25, label %if.else28

if.then25:                                        ; preds = %if.then23
  %32 = load ptr, ptr %first, align 8
  %33 = load ptr, ptr %localeEnd, align 8
  %add.ptr26 = getelementptr inbounds i8, ptr %33, i64 1
  %34 = load ptr, ptr %fillIn.addr, align 8
  %35 = load ptr, ptr %status.addr, align 8
  %call27 = call ptr @ures_findSubResource_75(ptr noundef %32, ptr noundef %add.ptr26, ptr noundef %34, ptr noundef %35)
  store ptr %call27, ptr %result, align 8
  br label %if.end30

if.else28:                                        ; preds = %if.then23
  %36 = load ptr, ptr %fillIn.addr, align 8
  %37 = load ptr, ptr %first, align 8
  %38 = load ptr, ptr %status.addr, align 8
  %call29 = call ptr @ures_copyResb_75(ptr noundef %36, ptr noundef %37, ptr noundef %38)
  store ptr %call29, ptr %result, align 8
  br label %if.end30

if.end30:                                         ; preds = %if.else28, %if.then25
  %39 = load ptr, ptr %first, align 8
  call void @ures_close_75(ptr noundef %39)
  br label %if.end31

if.end31:                                         ; preds = %if.end30, %if.end19
  %40 = load ptr, ptr %save, align 8
  call void @uprv_free_75(ptr noundef %40)
  %41 = load ptr, ptr %result, align 8
  store ptr %41, ptr %retval, align 8
  br label %return

return:                                           ; preds = %if.end31, %if.then5, %if.then
  %42 = load ptr, ptr %retval, align 8
  ret ptr %42
}