; Function Attrs: mustprogress uwtable
define noundef ptr @ures_findResource_75(ptr nocapture noundef readonly %path, ptr noundef %fillIn, ptr noundef %status) local_unnamed_addr #1 {
entry:
  %path.addr.i = alloca ptr, align 8
  %key.i = alloca ptr, align 8
  %cmp = icmp eq ptr %status, null
  br i1 %cmp, label %return, label %lor.lhs.false

lor.lhs.false:                                    ; preds = %entry
  %0 = load i32, ptr %status, align 4
  %cmp.i = icmp slt i32 %0, 1
  br i1 %cmp.i, label %if.end, label %return

if.end:                                           ; preds = %lor.lhs.false
  %call1 = tail call i64 @strlen(ptr noundef nonnull dereferenceable(1) %path) #24
  %conv = shl i64 %call1, 32
  %sext = add i64 %conv, 4294967296
  %conv2 = ashr exact i64 %sext, 32
  %call3 = tail call noalias ptr @uprv_malloc_75(i64 noundef %conv2) #21
  %cmp4 = icmp eq ptr %call3, null
  br i1 %cmp4, label %if.then5, label %do.body

if.then5:                                         ; preds = %if.end
  store i32 7, ptr %status, align 4
  br label %return

do.body:                                          ; preds = %if.end
  tail call void @llvm.memcpy.p0.p0.i64(ptr nonnull align 1 %call3, ptr align 1 %path, i64 %conv2, i1 false)
  %1 = load i8, ptr %call3, align 1
  %cmp9 = icmp eq i8 %1, 47
  br i1 %cmp9, label %if.then10, label %if.end15

if.then10:                                        ; preds = %do.body
  %incdec.ptr = getelementptr inbounds i8, ptr %call3, i64 1
  %call11 = tail call noundef ptr @strchr(ptr noundef nonnull dereferenceable(1) %incdec.ptr, i32 noundef 47) #24
  %cmp12 = icmp eq ptr %call11, null
  br i1 %cmp12, label %if.then13, label %if.else

if.then13:                                        ; preds = %if.then10
  store i32 1, ptr %status, align 4
  br label %if.end15

if.else:                                          ; preds = %if.then10
  store i8 0, ptr %call11, align 1
  %add.ptr = getelementptr inbounds i8, ptr %call11, i64 1
  br label %if.end15

if.end15:                                         ; preds = %if.then13, %if.else, %do.body
  %packageName.0 = phi ptr [ %incdec.ptr, %if.then13 ], [ %incdec.ptr, %if.else ], [ null, %do.body ]
  %locale.0 = phi ptr [ %call3, %if.then13 ], [ %add.ptr, %if.else ], [ %call3, %do.body ]
  %call16 = tail call noundef ptr @strchr(ptr noundef nonnull dereferenceable(1) %locale.0, i32 noundef 47) #24
  %cmp17.not = icmp eq ptr %call16, null
  br i1 %cmp17.not, label %if.end19, label %if.end19.thread

if.end19:                                         ; preds = %if.end15
  %call.i = tail call fastcc noundef ptr @_ZL17ures_openWithTypeP15UResourceBundlePKcS2_12UResOpenTypeP10UErrorCode(ptr noundef null, ptr noundef %packageName.0, ptr noundef nonnull %locale.0, i32 noundef 0, ptr noundef nonnull %status)
  %2 = load i32, ptr %status, align 4
  %cmp.i29 = icmp sgt i32 %2, 0
  br i1 %cmp.i29, label %if.end31, label %if.else28

if.end19.thread:                                  ; preds = %if.end15
  store i8 0, ptr %call16, align 1
  %call.i34 = tail call fastcc noundef ptr @_ZL17ures_openWithTypeP15UResourceBundlePKcS2_12UResOpenTypeP10UErrorCode(ptr noundef null, ptr noundef %packageName.0, ptr noundef nonnull %locale.0, i32 noundef 0, ptr noundef nonnull %status)
  %3 = load i32, ptr %status, align 4
  %cmp.i2935 = icmp sgt i32 %3, 0
  br i1 %cmp.i2935, label %if.end31, label %lor.lhs.false.i

lor.lhs.false.i:                                  ; preds = %if.end19.thread
  %add.ptr26 = getelementptr inbounds i8, ptr %call16, i64 1
  call void @llvm.lifetime.start.p0(i64 8, ptr nonnull %path.addr.i)
  call void @llvm.lifetime.start.p0(i64 8, ptr nonnull %key.i)
  store ptr %add.ptr26, ptr %path.addr.i, align 8
  %fData.i13.i = getelementptr inbounds i8, ptr %call.i34, i64 8
  %4 = load ptr, ptr %fData.i13.i, align 8
  %fData2.i14.i = getelementptr inbounds i8, ptr %4, i64 40
  %fRes15.i = getelementptr inbounds i8, ptr %call.i34, i64 108
  %5 = load i32, ptr %fRes15.i, align 4
  %call216.i = call i32 @res_findResource_75(ptr noundef nonnull %fData2.i14.i, i32 noundef %5, ptr noundef nonnull %path.addr.i, ptr noundef nonnull %key.i)
  %cmp3.not17.i = icmp eq i32 %call216.i, -1
  br i1 %cmp3.not17.i, label %if.else.i, label %if.then4.i

do.body.i:                                        ; preds = %if.then4.i
  %fData.i.i = getelementptr inbounds i8, ptr %call.i.i, i64 8
  %6 = load ptr, ptr %fData.i.i, align 8
  %fData2.i.i = getelementptr inbounds i8, ptr %6, i64 40
  %fRes.i = getelementptr inbounds i8, ptr %call.i.i, i64 108
  %7 = load i32, ptr %fRes.i, align 4
  %call2.i = call i32 @res_findResource_75(ptr noundef nonnull %fData2.i.i, i32 noundef %7, ptr noundef nonnull %path.addr.i, ptr noundef nonnull %key.i)
  %cmp3.not.i = icmp eq i32 %call2.i, -1
  br i1 %cmp3.not.i, label %if.else.i, label %if.then4.i, !llvm.loop !7

if.then4.i:                                       ; preds = %lor.lhs.false.i, %do.body.i
  %call220.i = phi i32 [ %call2.i, %do.body.i ], [ %call216.i, %lor.lhs.false.i ]
  %fData.i19.i = phi ptr [ %fData.i.i, %do.body.i ], [ %fData.i13.i, %lor.lhs.false.i ]
  %resB.addr.018.i = phi ptr [ %call.i.i, %do.body.i ], [ %call.i34, %lor.lhs.false.i ]
  %8 = load ptr, ptr %fData.i19.i, align 8
  %9 = load ptr, ptr %key.i, align 8
  %10 = getelementptr i8, ptr %resB.addr.018.i, i64 24
  %resB.addr.0.val.i = load ptr, ptr %10, align 8
  %11 = getelementptr i8, ptr %resB.addr.018.i, i64 32
  %resB.addr.0.val11.i = load ptr, ptr %11, align 8
  %call.i.i = call fastcc noundef ptr @_ZN12_GLOBAL__N_116init_resb_resultEP18UResourceDataEntryjPKciS1_S3_iP15UResourceBundleP10UErrorCode(ptr noundef %8, i32 noundef %call220.i, ptr noundef %9, i32 noundef -1, ptr noundef %resB.addr.0.val.i, ptr noundef %resB.addr.0.val11.i, i32 noundef 0, ptr noundef %fillIn, ptr noundef nonnull %status)
  %12 = load ptr, ptr %path.addr.i, align 8
  %13 = load i8, ptr %12, align 1
  %tobool7.not.i = icmp eq i8 %13, 0
  br i1 %tobool7.not.i, label %ures_findSubResource_75.exit, label %do.body.i, !llvm.loop !7

if.else.i:                                        ; preds = %do.body.i, %lor.lhs.false.i
  %result.0.lcssa.i = phi ptr [ %fillIn, %lor.lhs.false.i ], [ %call.i.i, %do.body.i ]
  store i32 2, ptr %status, align 4
  br label %ures_findSubResource_75.exit

ures_findSubResource_75.exit:                     ; preds = %if.then4.i, %if.else.i
  %retval.0.i = phi ptr [ %result.0.lcssa.i, %if.else.i ], [ %call.i.i, %if.then4.i ]
  call void @llvm.lifetime.end.p0(i64 8, ptr nonnull %path.addr.i)
  call void @llvm.lifetime.end.p0(i64 8, ptr nonnull %key.i)
  br label %if.end30

if.else28:                                        ; preds = %if.end19
  %call29 = tail call ptr @ures_copyResb_75(ptr noundef %fillIn, ptr noundef %call.i, ptr noundef nonnull %status)
  br label %if.end30

if.end30:                                         ; preds = %if.else28, %ures_findSubResource_75.exit
  %call.i3639 = phi ptr [ %call.i34, %ures_findSubResource_75.exit ], [ %call.i, %if.else28 ]
  %result.0 = phi ptr [ %retval.0.i, %ures_findSubResource_75.exit ], [ %call29, %if.else28 ]
  call fastcc void @_ZL16ures_closeBundleP15UResourceBundlea(ptr noundef %call.i3639, i8 noundef signext 1)
  br label %if.end31

if.end31:                                         ; preds = %if.end19.thread, %if.end30, %if.end19
  %result.1 = phi ptr [ %result.0, %if.end30 ], [ %fillIn, %if.end19 ], [ %fillIn, %if.end19.thread ]
  call void @uprv_free_75(ptr noundef nonnull %call3)
  br label %return

return:                                           ; preds = %entry, %lor.lhs.false, %if.end31, %if.then5
  %retval.0 = phi ptr [ %fillIn, %if.then5 ], [ %result.1, %if.end31 ], [ %fillIn, %lor.lhs.false ], [ %fillIn, %entry ]
  ret ptr %retval.0
}